target datalayout = "e-m:e-p270:32:32-p271:32:32-p272:64:64-i64:64-i128:128-f80:128-n8:16:32:64-S128"
target triple = "x86_64-pc-linux-gnu"

%struct.FunctionCallInfoBaseData = type { ptr, ptr, ptr, i32, i8, i16, [0 x %struct.NullableDatum] }
%struct.NullableDatum = type { i64, i8 }
%struct.ArrayType = type { i32, i32, i32, i32 }

@.str.1 = private unnamed_addr constant [15 x i8] c"ginarrayproc.c\00", align 1
@.str.2 = private unnamed_addr constant [50 x i8] c"ginqueryarrayextract: unknown strategy number: %d\00", align 1
@__func__.ginqueryarrayextract = private unnamed_addr constant [21 x i8] c"ginqueryarrayextract\00", align 1

; Function Attrs: inlinehint nounwind uwtable
define internal i64 @PointerGetDatum(ptr noundef %0) #3 {
  %2 = alloca ptr, align 8
  store ptr %0, ptr %2, align 8
  %3 = load ptr, ptr %2, align 8
  %4 = ptrtoint ptr %3 to i64
  ret i64 %4
}

; Function Attrs: inlinehint nounwind uwtable
define internal zeroext i16 @DatumGetUInt16(i64 noundef %0) #3 {
  %2 = alloca i64, align 8
  store i64 %0, ptr %2, align 8
  %3 = load i64, ptr %2, align 8
  %4 = trunc i64 %3 to i16
  ret i16 %4
}

; Function Attrs: inlinehint nounwind uwtable
define internal ptr @DatumGetPointer(i64 noundef %0) #3 {
  %2 = alloca i64, align 8
  store i64 %0, ptr %2, align 8
  %3 = load i64, ptr %2, align 8
  %4 = inttoptr i64 %3 to ptr
  ret ptr %4
}

; Function Attrs: nounwind uwtable
define dso_local i64 @ginqueryarrayextract(ptr noundef %0) #0 {
  %2 = alloca ptr, align 8
  %3 = alloca ptr, align 8
  %4 = alloca ptr, align 8
  %5 = alloca i16, align 2
  %6 = alloca ptr, align 8
  %7 = alloca ptr, align 8
  %8 = alloca i16, align 2
  %9 = alloca i8, align 1
  %10 = alloca i8, align 1
  %11 = alloca ptr, align 8
  %12 = alloca ptr, align 8
  %13 = alloca i32, align 4
  store ptr %0, ptr %2, align 8
  call void @llvm.lifetime.start.p0(i64 8, ptr %3) #5
  %14 = load ptr, ptr %2, align 8
  %15 = getelementptr inbounds nuw %struct.FunctionCallInfoBaseData, ptr %14, i32 0, i32 6
  %16 = getelementptr inbounds [0 x %struct.NullableDatum], ptr %15, i64 0, i64 0
  %17 = getelementptr inbounds nuw %struct.NullableDatum, ptr %16, i32 0, i32 0
  %18 = load i64, ptr %17, align 8
  %19 = call ptr @DatumGetPointer(i64 noundef %18)
  %20 = call ptr @pg_detoast_datum_copy(ptr noundef %19)
  store ptr %20, ptr %3, align 8
  call void @llvm.lifetime.start.p0(i64 8, ptr %4) #5
  %21 = load ptr, ptr %2, align 8
  %22 = getelementptr inbounds nuw %struct.FunctionCallInfoBaseData, ptr %21, i32 0, i32 6
  %23 = getelementptr inbounds [0 x %struct.NullableDatum], ptr %22, i64 0, i64 1
  %24 = getelementptr inbounds nuw %struct.NullableDatum, ptr %23, i32 0, i32 0
  %25 = load i64, ptr %24, align 8
  %26 = call ptr @DatumGetPointer(i64 noundef %25)
  store ptr %26, ptr %4, align 8
  call void @llvm.lifetime.start.p0(i64 2, ptr %5) #5
  %27 = load ptr, ptr %2, align 8
  %28 = getelementptr inbounds nuw %struct.FunctionCallInfoBaseData, ptr %27, i32 0, i32 6
  %29 = getelementptr inbounds [0 x %struct.NullableDatum], ptr %28, i64 0, i64 2
  %30 = getelementptr inbounds nuw %struct.NullableDatum, ptr %29, i32 0, i32 0
  %31 = load i64, ptr %30, align 8
  %32 = call zeroext i16 @DatumGetUInt16(i64 noundef %31)
  store i16 %32, ptr %5, align 2
  call void @llvm.lifetime.start.p0(i64 8, ptr %6) #5
  %33 = load ptr, ptr %2, align 8
  %34 = getelementptr inbounds nuw %struct.FunctionCallInfoBaseData, ptr %33, i32 0, i32 6
  %35 = getelementptr inbounds [0 x %struct.NullableDatum], ptr %34, i64 0, i64 5
  %36 = getelementptr inbounds nuw %struct.NullableDatum, ptr %35, i32 0, i32 0
  %37 = load i64, ptr %36, align 8
  %38 = call ptr @DatumGetPointer(i64 noundef %37)
  store ptr %38, ptr %6, align 8
  call void @llvm.lifetime.start.p0(i64 8, ptr %7) #5
  %39 = load ptr, ptr %2, align 8
  %40 = getelementptr inbounds nuw %struct.FunctionCallInfoBaseData, ptr %39, i32 0, i32 6
  %41 = getelementptr inbounds [0 x %struct.NullableDatum], ptr %40, i64 0, i64 6
  %42 = getelementptr inbounds nuw %struct.NullableDatum, ptr %41, i32 0, i32 0
  %43 = load i64, ptr %42, align 8
  %44 = call ptr @DatumGetPointer(i64 noundef %43)
  store ptr %44, ptr %7, align 8
  call void @llvm.lifetime.start.p0(i64 2, ptr %8) #5
  call void @llvm.lifetime.start.p0(i64 1, ptr %9) #5
  call void @llvm.lifetime.start.p0(i64 1, ptr %10) #5
  call void @llvm.lifetime.start.p0(i64 8, ptr %11) #5
  call void @llvm.lifetime.start.p0(i64 8, ptr %12) #5
  call void @llvm.lifetime.start.p0(i64 4, ptr %13) #5
  %45 = load ptr, ptr %3, align 8
  %46 = getelementptr inbounds nuw %struct.ArrayType, ptr %45, i32 0, i32 3
  %47 = load i32, ptr %46, align 4
  call void @get_typlenbyvalalign(i32 noundef %47, ptr noundef %8, ptr noundef %9, ptr noundef %10)
  %48 = load ptr, ptr %3, align 8
  %49 = load ptr, ptr %3, align 8
  %50 = getelementptr inbounds nuw %struct.ArrayType, ptr %49, i32 0, i32 3
  %51 = load i32, ptr %50, align 4
  %52 = load i16, ptr %8, align 2
  %53 = sext i16 %52 to i32
  %54 = load i8, ptr %9, align 1, !range !4, !noundef !5
  %55 = trunc i8 %54 to i1
  %56 = load i8, ptr %10, align 1
  call void @deconstruct_array(ptr noundef %48, i32 noundef %51, i32 noundef %53, i1 noundef zeroext %55, i8 noundef signext %56, ptr noundef %11, ptr noundef %12, ptr noundef %13)
  %57 = load i32, ptr %13, align 4
  %58 = load ptr, ptr %4, align 8
  store i32 %57, ptr %58, align 4
  %59 = load ptr, ptr %12, align 8
  %60 = load ptr, ptr %6, align 8
  store ptr %59, ptr %60, align 8
  %61 = load i16, ptr %5, align 2
  %62 = zext i16 %61 to i32
  switch i32 %62, label %83 [
    i32 1, label %63
    i32 2, label %65
    i32 3, label %73
    i32 4, label %75
  ]

63:                                               ; preds = %1
  %64 = load ptr, ptr %7, align 8
  store i32 0, ptr %64, align 4
  br label %96

65:                                               ; preds = %1
  %66 = load i32, ptr %13, align 4
  %67 = icmp sgt i32 %66, 0
  br i1 %67, label %68, label %70

68:                                               ; preds = %65
  %69 = load ptr, ptr %7, align 8
  store i32 0, ptr %69, align 4
  br label %72

70:                                               ; preds = %65
  %71 = load ptr, ptr %7, align 8
  store i32 2, ptr %71, align 4
  br label %72

72:                                               ; preds = %70, %68
  br label %96

73:                                               ; preds = %1
  %74 = load ptr, ptr %7, align 8
  store i32 1, ptr %74, align 4
  br label %96

75:                                               ; preds = %1
  %76 = load i32, ptr %13, align 4
  %77 = icmp sgt i32 %76, 0
  br i1 %77, label %78, label %80

78:                                               ; preds = %75
  %79 = load ptr, ptr %7, align 8
  store i32 0, ptr %79, align 4
  br label %82

80:                                               ; preds = %75
  %81 = load ptr, ptr %7, align 8
  store i32 1, ptr %81, align 4
  br label %82

82:                                               ; preds = %80, %78
  br label %96

83:                                               ; preds = %1
  br label %84

84:                                               ; preds = %83
  br i1 true, label %85, label %87

85:                                               ; preds = %84
  %86 = call zeroext i1 @errstart_cold(i32 noundef 21, ptr noundef null) #6
  br i1 %86, label %89, label %93

87:                                               ; preds = %84
  %88 = call zeroext i1 @errstart(i32 noundef 21, ptr noundef null)
  br i1 %88, label %89, label %93

89:                                               ; preds = %87, %85
  %90 = load i16, ptr %5, align 2
  %91 = zext i16 %90 to i32
  %92 = call i32 (ptr, ...) @errmsg_internal(ptr noundef @.str.2, i32 noundef %91)
  call void @errfinish(ptr noundef @.str.1, i32 noundef 131, ptr noundef @__func__.ginqueryarrayextract)
  br label %93

93:                                               ; preds = %89, %87, %85
  unreachable

94:                                               ; No predecessors!
  br label %95

95:                                               ; preds = %94
  br label %96

96:                                               ; preds = %95, %82, %73, %72, %63
  %97 = load ptr, ptr %11, align 8
  %98 = call i64 @PointerGetDatum(ptr noundef %97)
  call void @llvm.lifetime.end.p0(i64 4, ptr %13) #5
  call void @llvm.lifetime.end.p0(i64 8, ptr %12) #5
  call void @llvm.lifetime.end.p0(i64 8, ptr %11) #5
  call void @llvm.lifetime.end.p0(i64 1, ptr %10) #5
  call void @llvm.lifetime.end.p0(i64 1, ptr %9) #5
  call void @llvm.lifetime.end.p0(i64 2, ptr %8) #5
  call void @llvm.lifetime.end.p0(i64 8, ptr %7) #5
  call void @llvm.lifetime.end.p0(i64 8, ptr %6) #5
  call void @llvm.lifetime.end.p0(i64 2, ptr %5) #5
  call void @llvm.lifetime.end.p0(i64 8, ptr %4) #5
  call void @llvm.lifetime.end.p0(i64 8, ptr %3) #5
  ret i64 %98
}