; Function Attrs: nounwind uwtable
define dso_local i64 @ginqueryarrayextract(ptr noundef readonly captures(none) %0) local_unnamed_addr #0 {
  %2 = alloca i16, align 2
  %3 = alloca i8, align 1
  %4 = alloca i8, align 1
  %5 = alloca ptr, align 8
  %6 = alloca ptr, align 8
  %7 = alloca i32, align 4
  %8 = getelementptr inbounds nuw i8, ptr %0, i64 32
  %9 = load i64, ptr %8, align 8
  %10 = inttoptr i64 %9 to ptr
  %11 = tail call ptr @pg_detoast_datum_copy(ptr noundef %10) #5
  %12 = getelementptr inbounds nuw i8, ptr %0, i64 48
  %13 = load i64, ptr %12, align 8
  %14 = inttoptr i64 %13 to ptr
  %15 = getelementptr inbounds nuw i8, ptr %0, i64 64
  %16 = load i64, ptr %15, align 8
  %17 = trunc i64 %16 to i16
  %18 = getelementptr inbounds nuw i8, ptr %0, i64 112
  %19 = load i64, ptr %18, align 8
  %20 = inttoptr i64 %19 to ptr
  %21 = getelementptr inbounds nuw i8, ptr %0, i64 128
  %22 = load i64, ptr %21, align 8
  call void @llvm.lifetime.start.p0(i64 2, ptr nonnull %2) #5
  call void @llvm.lifetime.start.p0(i64 1, ptr nonnull %3) #5
  call void @llvm.lifetime.start.p0(i64 1, ptr nonnull %4) #5
  call void @llvm.lifetime.start.p0(i64 8, ptr nonnull %5) #5
  call void @llvm.lifetime.start.p0(i64 8, ptr nonnull %6) #5
  call void @llvm.lifetime.start.p0(i64 4, ptr nonnull %7) #5
  %23 = getelementptr inbounds nuw i8, ptr %11, i64 12
  %24 = load i32, ptr %23, align 4
  call void @get_typlenbyvalalign(i32 noundef %24, ptr noundef nonnull %2, ptr noundef nonnull %3, ptr noundef nonnull %4) #5
  %25 = load i32, ptr %23, align 4
  %26 = load i16, ptr %2, align 2
  %27 = sext i16 %26 to i32
  %28 = load i8, ptr %3, align 1, !range !4, !noundef !5
  %29 = trunc nuw i8 %28 to i1
  %30 = load i8, ptr %4, align 1
  call void @deconstruct_array(ptr noundef %11, i32 noundef %25, i32 noundef %27, i1 noundef zeroext %29, i8 noundef signext %30, ptr noundef nonnull %5, ptr noundef nonnull %6, ptr noundef nonnull %7) #5
  %31 = load i32, ptr %7, align 4
  store i32 %31, ptr %14, align 4
  %32 = load ptr, ptr %6, align 8
  store ptr %32, ptr %20, align 8
  switch i16 %17, label %38 [
    i16 1, label %43
    i16 2, label %33
    i16 3, label %35
    i16 4, label %36
  ]

33:                                               ; preds = %1
  %34 = icmp sgt i32 %31, 0
  %. = select i1 %34, i32 0, i32 2
  br label %43

35:                                               ; preds = %1
  br label %43

36:                                               ; preds = %1
  %37 = icmp slt i32 %31, 1
  %.17 = zext i1 %37 to i32
  br label %43

38:                                               ; preds = %1
  %39 = trunc i64 %16 to i32
  %40 = and i32 %39, 65535
  %41 = call zeroext i1 @errstart_cold(i32 noundef 21, ptr noundef null) #6
  call void @llvm.assume(i1 %41)
  %42 = call i32 (ptr, ...) @errmsg_internal(ptr noundef nonnull @.str.2, i32 noundef %40) #5
  call void @errfinish(ptr noundef nonnull @.str.1, i32 noundef 131, ptr noundef nonnull @__func__.ginqueryarrayextract) #5
  unreachable

43:                                               ; preds = %36, %33, %1, %35
  %.sink = phi i32 [ 1, %35 ], [ 0, %1 ], [ %., %33 ], [ %.17, %36 ]
  %44 = inttoptr i64 %22 to ptr
  store i32 %.sink, ptr %44, align 4
  %45 = load ptr, ptr %5, align 8
  %46 = ptrtoint ptr %45 to i64
  call void @llvm.lifetime.end.p0(i64 4, ptr nonnull %7) #5
  call void @llvm.lifetime.end.p0(i64 8, ptr nonnull %6) #5
  call void @llvm.lifetime.end.p0(i64 8, ptr nonnull %5) #5
  call void @llvm.lifetime.end.p0(i64 1, ptr nonnull %4) #5
  call void @llvm.lifetime.end.p0(i64 1, ptr nonnull %3) #5
  call void @llvm.lifetime.end.p0(i64 2, ptr nonnull %2) #5
  ret i64 %46
}